(dp0
I4557832
(lp1
S'tito'
p2
aI4557832
aS'asdasd'
p3
aS'tira'
p4
aI445
aI12312
aS'asde'
p5
aI01
asI4568123
(lp6
S'angel'
p7
aI4568123
aS'lopez'
p8
aS'moreno'
p9
aI1234
aI1123212
aS'asdde'
p10
aI01
asI67892342
(lp11
S'lopez'
p12
aI67892342
aS'iaz'
p13
aS'merlo'
p14
aI1232
aI112412
aS'dea'
p15
aI01
as.