(dp0
I1
(lp1
S'cereales'
p2
aI40
aF100.0
aF50.0
aI400
aI00
asI2
(lp3
S'pan'
p4
aI20
aF200.0
aF10.0
aI500
aI01
asI11
(lp5
S'papas'
p6
aI500
aF700.0
aF200.0
aI999
aI01
asI23
(lp7
S'Salchicha'
p8
aI100
aF122.0
aF50.0
aI567
aI01
as.